; Function Attrs: nounwind uwtable
define internal i32 @aasc_decode_frame(ptr noundef %0, ptr noundef %1, ptr noundef writeonly captures(none) %2, ptr noundef readonly captures(none) %3) #1 {
  %5 = getelementptr inbounds nuw i8, ptr %3, i64 24
  %6 = load ptr, ptr %5, align 8, !tbaa !42
  %7 = getelementptr inbounds nuw i8, ptr %3, i64 32
  %8 = load i32, ptr %7, align 8, !tbaa !44
  %9 = getelementptr inbounds nuw i8, ptr %0, i64 32
  %10 = load ptr, ptr %9, align 8, !tbaa !4
  %11 = icmp slt i32 %8, 4
  br i1 %11, label %12, label %13

12:                                               ; preds = %4
  tail call void (ptr, i32, ptr, ...) @av_log(ptr noundef nonnull %0, i32 noundef 16, ptr noundef nonnull @.str.3) #5
  br label %80

13:                                               ; preds = %4
  %14 = getelementptr inbounds nuw i8, ptr %10, i64 32
  %15 = load ptr, ptr %14, align 8, !tbaa !41
  %16 = tail call i32 @ff_reget_buffer(ptr noundef nonnull %0, ptr noundef %15, i32 noundef 0) #5
  %17 = icmp slt i32 %16, 0
  br i1 %17, label %80, label %18

18:                                               ; preds = %13
  %19 = load i32, ptr %6, align 1, !tbaa !37
  %20 = getelementptr inbounds nuw i8, ptr %6, i64 4
  %21 = add nsw i32 %8, -4
  %22 = getelementptr inbounds nuw i8, ptr %0, i64 648
  %23 = load i32, ptr %22, align 8, !tbaa !32
  %24 = sdiv i32 %23, 8
  %25 = getelementptr inbounds nuw i8, ptr %0, i64 28
  %26 = load i32, ptr %25, align 4, !tbaa !45
  switch i32 %26, label %55 [
    i32 877871425, label %.loopexit.sink.split
    i32 1129529665, label %27
  ]

27:                                               ; preds = %18
  switch i32 %19, label %54 [
    i32 0, label %28
    i32 1, label %.loopexit.sink.split
  ]

28:                                               ; preds = %27
  %29 = getelementptr inbounds nuw i8, ptr %0, i64 112
  %30 = load i32, ptr %29, align 8, !tbaa !46
  %31 = add i32 %30, 1
  %32 = mul i32 %31, %24
  %33 = xor i32 %24, -1
  %34 = and i32 %32, %33
  %35 = getelementptr inbounds nuw i8, ptr %0, i64 116
  %36 = load i32, ptr %35, align 4, !tbaa !47
  %37 = mul nsw i32 %34, %36
  %38 = icmp slt i32 %21, %37
  br i1 %38, label %80, label %.preheader

.preheader:                                       ; preds = %28
  %39 = icmp sgt i32 %36, 0
  br i1 %39, label %.lr.ph, label %.loopexit

.lr.ph:                                           ; preds = %.preheader
  %40 = sext i32 %34 to i64
  br label %41

41:                                               ; preds = %.lr.ph, %41
  %.05967 = phi ptr [ %20, %.lr.ph ], [ %52, %41 ]
  %.060.in66 = phi i32 [ %36, %.lr.ph ], [ %.060, %41 ]
  %.060 = add nsw i32 %.060.in66, -1
  %42 = load ptr, ptr %14, align 8, !tbaa !41
  %43 = load ptr, ptr %42, align 8, !tbaa !48
  %44 = getelementptr inbounds nuw i8, ptr %42, i64 64
  %45 = load i32, ptr %44, align 8, !tbaa !38
  %46 = mul nsw i32 %45, %.060
  %47 = sext i32 %46 to i64
  %48 = getelementptr inbounds i8, ptr %43, i64 %47
  %49 = load i32, ptr %29, align 8, !tbaa !46
  %50 = mul nsw i32 %49, %24
  %51 = sext i32 %50 to i64
  tail call void @llvm.memcpy.p0.p0.i64(ptr align 1 %48, ptr align 1 %.05967, i64 %51, i1 false)
  %52 = getelementptr inbounds i8, ptr %.05967, i64 %40
  %53 = icmp samesign ugt i32 %.060.in66, 1
  br i1 %53, label %41, label %.loopexit, !llvm.loop !49

54:                                               ; preds = %27
  tail call void (ptr, i32, ptr, ...) @av_log(ptr noundef nonnull %0, i32 noundef 16, ptr noundef nonnull @.str.4, i32 noundef %19) #5
  br label %80

55:                                               ; preds = %18
  tail call void (ptr, i32, ptr, ...) @av_log(ptr noundef nonnull %0, i32 noundef 16, ptr noundef nonnull @.str.5, i32 noundef %26) #5
  br label %80

.loopexit.sink.split:                             ; preds = %27, %18
  %.sink74 = phi ptr [ %6, %18 ], [ %20, %27 ]
  %.sink = phi i32 [ %8, %18 ], [ %21, %27 ]
  %56 = getelementptr inbounds nuw i8, ptr %10, i64 8
  store ptr %.sink74, ptr %56, align 8, !tbaa !50
  %57 = getelementptr inbounds nuw i8, ptr %10, i64 24
  store ptr %.sink74, ptr %57, align 8, !tbaa !51
  %58 = zext nneg i32 %.sink to i64
  %59 = getelementptr inbounds nuw i8, ptr %.sink74, i64 %58
  %60 = getelementptr inbounds nuw i8, ptr %10, i64 16
  store ptr %59, ptr %60, align 8, !tbaa !52
  %61 = load ptr, ptr %14, align 8, !tbaa !41
  %62 = tail call i32 @ff_msrle_decode(ptr noundef nonnull %0, ptr noundef %61, i32 noundef 8, ptr noundef nonnull %56) #5
  br label %.loopexit

.loopexit:                                        ; preds = %41, %.loopexit.sink.split, %.preheader
  %63 = getelementptr inbounds nuw i8, ptr %0, i64 136
  %64 = load i32, ptr %63, align 8, !tbaa !33
  %65 = icmp eq i32 %64, 11
  br i1 %65, label %66, label %74

66:                                               ; preds = %.loopexit
  %67 = load ptr, ptr %14, align 8, !tbaa !41
  %68 = getelementptr inbounds nuw i8, ptr %67, i64 8
  %69 = load ptr, ptr %68, align 8, !tbaa !48
  %70 = getelementptr inbounds nuw i8, ptr %10, i64 40
  %71 = getelementptr inbounds nuw i8, ptr %10, i64 1064
  %72 = load i32, ptr %71, align 8, !tbaa !36
  %73 = sext i32 %72 to i64
  tail call void @llvm.memcpy.p0.p0.i64(ptr align 1 %69, ptr nonnull align 8 %70, i64 %73, i1 false)
  br label %74

74:                                               ; preds = %66, %.loopexit
  store i32 1, ptr %2, align 4, !tbaa !38
  %75 = load ptr, ptr %14, align 8, !tbaa !41
  %76 = tail call i32 @av_frame_ref(ptr noundef %1, ptr noundef %75) #5
  %77 = icmp slt i32 %76, 0
  br i1 %77, label %80, label %78

78:                                               ; preds = %74
  %79 = load i32, ptr %7, align 8, !tbaa !44
  br label %80

80:                                               ; preds = %74, %28, %13, %78, %55, %54, %12
  %.0 = phi i32 [ -1094995529, %12 ], [ -1, %55 ], [ -1094995529, %54 ], [ %79, %78 ], [ %16, %13 ], [ -1094995529, %28 ], [ %76, %74 ]
  ret i32 %.0
}